target datalayout = "e-m:e-p270:32:32-p271:32:32-p272:64:64-i64:64-i128:128-f80:128-n8:16:32:64-S128"
target triple = "x86_64-pc-linux-gnu"

@proto_ansi_tcap = internal global i32 0, align 4
@.str.130 = private unnamed_addr constant [47 x i8] c"ANSI Transaction Capabilities Application Part\00", align 1
@.str.131 = private unnamed_addr constant [10 x i8] c"ANSI_TCAP\00", align 1
@.str.132 = private unnamed_addr constant [10 x i8] c"ansi_tcap\00", align 1
@.str.133 = private unnamed_addr constant [21 x i8] c"ansi_tcap.nat.opcode\00", align 1
@.str.134 = private unnamed_addr constant [27 x i8] c"ANSI TCAP National Opcodes\00", align 1
@ansi_tcap_national_opcode_table = internal global ptr null, align 8
@.str.135 = private unnamed_addr constant [22 x i8] c"transaction.matchtype\00", align 1
@.str.136 = private unnamed_addr constant [33 x i8] c"Type of matching invoke/response\00", align 1
@.str.137 = private unnamed_addr constant [76 x i8] c"Type of matching invoke/response, risk of mismatch if loose matching chosen\00", align 1
@ansi_tcap_response_matching_type = internal global i32 0, align 4
@TransactionId_table = internal global ptr null, align 8

; Function Attrs: null_pointer_is_valid sspstrong uwtable
define hidden void @proto_register_ansi_tcap() #0 {
  %1 = alloca ptr, align 8
  %2 = alloca ptr, align 8
  call void @llvm.lifetime.start.p0(i64 8, ptr %1) #9
  call void @llvm.lifetime.start.p0(i64 8, ptr %2) #9
  %3 = call i32 @proto_register_protocol(ptr noundef @.str.130, ptr noundef @.str.131, ptr noundef @.str.132)
  store i32 %3, ptr @proto_ansi_tcap, align 4
  %4 = load i32, ptr @proto_ansi_tcap, align 4
  %5 = call ptr @register_dissector(ptr noundef @.str.132, ptr noundef @dissect_ansi_tcap, i32 noundef %4)
  %6 = load i32, ptr @proto_ansi_tcap, align 4
  %7 = call ptr @register_dissector_table(ptr noundef @.str.133, ptr noundef @.str.134, i32 noundef %6, i32 noundef 5, i32 noundef 1)
  store ptr %7, ptr @ansi_tcap_national_opcode_table, align 8
  %8 = load i32, ptr @proto_ansi_tcap, align 4
  call void @proto_register_field_array(i32 noundef %8, ptr noundef @proto_register_ansi_tcap.hf, i32 noundef 54)
  call void @proto_register_subtree_array(ptr noundef @proto_register_ansi_tcap.ett, i32 noundef 28)
  %9 = load i32, ptr @proto_ansi_tcap, align 4
  %10 = call ptr @expert_register_protocol(i32 noundef %9)
  store ptr %10, ptr %2, align 8
  %11 = load ptr, ptr %2, align 8
  call void @expert_register_field_array(ptr noundef %11, ptr noundef @proto_register_ansi_tcap.ei, i32 noundef 1)
  %12 = load i32, ptr @proto_ansi_tcap, align 4
  %13 = call ptr @prefs_register_protocol(i32 noundef %12, ptr noundef @proto_reg_handoff_ansi_tcap)
  store ptr %13, ptr %1, align 8
  %14 = load ptr, ptr %1, align 8
  call void @prefs_register_enum_preference(ptr noundef %14, ptr noundef @.str.135, ptr noundef @.str.136, ptr noundef @.str.137, ptr noundef @ansi_tcap_response_matching_type, ptr noundef @proto_register_ansi_tcap.ansi_tcap_response_matching_type_values, i1 noundef zeroext false)
  %15 = call ptr @wmem_epan_scope()
  %16 = call ptr @wmem_file_scope()
  %17 = call noalias ptr @wmem_multimap_new_autoreset(ptr noundef %15, ptr noundef %16, ptr noundef @wmem_str_hash, ptr noundef @g_str_equal)
  store ptr %17, ptr @TransactionId_table, align 8
  call void @llvm.lifetime.end.p0(i64 8, ptr %2) #9
  call void @llvm.lifetime.end.p0(i64 8, ptr %1) #9
  ret void
}