; Function Attrs: null_pointer_is_valid sspstrong uwtable
define hidden void @proto_register_ansi_tcap() local_unnamed_addr #0 {
  %1 = tail call i32 @proto_register_protocol(ptr noundef nonnull @.str.130, ptr noundef nonnull @.str.131, ptr noundef nonnull @.str.132)
  store i32 %1, ptr @proto_ansi_tcap, align 4
  %2 = tail call ptr @register_dissector(ptr noundef nonnull @.str.132, ptr noundef nonnull @dissect_ansi_tcap, i32 noundef %1)
  %3 = load i32, ptr @proto_ansi_tcap, align 4
  %4 = tail call ptr @register_dissector_table(ptr noundef nonnull @.str.133, ptr noundef nonnull @.str.134, i32 noundef %3, i32 noundef 5, i32 noundef 1)
  store ptr %4, ptr @ansi_tcap_national_opcode_table, align 8
  %5 = load i32, ptr @proto_ansi_tcap, align 4
  tail call void @proto_register_field_array(i32 noundef %5, ptr noundef nonnull @proto_register_ansi_tcap.hf, i32 noundef 54)
  tail call void @proto_register_subtree_array(ptr noundef nonnull @proto_register_ansi_tcap.ett, i32 noundef 28)
  %6 = load i32, ptr @proto_ansi_tcap, align 4
  %7 = tail call ptr @expert_register_protocol(i32 noundef %6)
  tail call void @expert_register_field_array(ptr noundef %7, ptr noundef nonnull @proto_register_ansi_tcap.ei, i32 noundef 1)
  %8 = load i32, ptr @proto_ansi_tcap, align 4
  %9 = tail call ptr @prefs_register_protocol(i32 noundef %8, ptr noundef nonnull @proto_reg_handoff_ansi_tcap)
  tail call void @prefs_register_enum_preference(ptr noundef %9, ptr noundef nonnull @.str.135, ptr noundef nonnull @.str.136, ptr noundef nonnull @.str.137, ptr noundef nonnull @ansi_tcap_response_matching_type, ptr noundef nonnull @proto_register_ansi_tcap.ansi_tcap_response_matching_type_values, i1 noundef zeroext false)
  %10 = tail call ptr @wmem_epan_scope()
  %11 = tail call ptr @wmem_file_scope()
  %12 = tail call noalias ptr @wmem_multimap_new_autoreset(ptr noundef %10, ptr noundef %11, ptr noundef nonnull @wmem_str_hash, ptr noundef nonnull @g_str_equal)
  store ptr %12, ptr @TransactionId_table, align 8
  ret void
}